target datalayout = "e-m:e-p270:32:32-p271:32:32-p272:64:64-i64:64-i128:128-f80:128-n8:16:32:64-S128"
target triple = "x86_64-pc-linux-gnu"

%struct.trace_key = type { ptr, i32, i8 }
%struct.strbuf = type { i64, i64, ptr }
%struct.rev_info = type { ptr, %struct.object_array, ptr, %struct.object_array, %struct.rev_cmdline_info, %struct.list_objects_filter_options, %struct.ref_exclusions, ptr, ptr, ptr, %struct.pathspec, i32, i32, i32, i32, i64, i32, i32, %struct.date_mode, i32, i32, i32, i32, ptr, i32, i32, ptr, ptr, i32, ptr, ptr, %struct.ident_split, ptr, i32, ptr, ptr, ptr, i32, i32, i32, ptr, %struct.grep_opt, ptr, i32, i32, i64, i64, i64, i32, i32, ptr, ptr, ptr, %struct.diff_options, %struct.diff_options, ptr, %struct.decoration, %struct.decoration, %struct.decoration, %struct.display_notes_opt, ptr, ptr, ptr, ptr, ptr, i32, ptr, i32, i32, i32, %struct.decoration, ptr, ptr, ptr, ptr, ptr, ptr, ptr, i32, ptr, i32, ptr, %struct.oidset }
%struct.object_array = type { i32, i32, ptr }
%struct.rev_cmdline_info = type { i32, i32, ptr }
%struct.list_objects_filter_options = type { %struct.strbuf, i32, i8, ptr, i64, i64, i32, i64, i64, ptr }
%struct.ref_exclusions = type { %struct.string_list, %struct.strvec, i8 }
%struct.string_list = type { ptr, i64, i64, i8, ptr }
%struct.strvec = type { ptr, i64, i64 }
%struct.pathspec = type { i32, i8, i32, i32, ptr }
%struct.date_mode = type { i32, i32, ptr }
%struct.ident_split = type { ptr, ptr, ptr, ptr, ptr, ptr, ptr, ptr }
%struct.grep_opt = type { ptr, ptr, ptr, ptr, ptr, ptr, i32, i32, i32, i32, i32, i32, i32, i32, i32, i32, i32, i32, i32, i32, i32, i32, i32, i32, i32, i32, i32, i32, i32, i32, i32, i32, [9 x [75 x i8]], i32, i32, i32, i32, i32, i32, i32, ptr, ptr, ptr }
%struct.diff_options = type { ptr, ptr, i32, i32, ptr, i32, ptr, i64, i64, ptr, ptr, ptr, ptr, %struct.diff_flags, i32, i32, i32, i32, i32, i32, i32, i32, i32, i32, i32, i32, i32, i32, i32, i32, i32, i32, i32, i32, i32, i32, ptr, i32, ptr, i32, i32, ptr, i64, i64, i32, i32, i32, i32, ptr, i32, i32, ptr, i32, i32, ptr, ptr, i32, [3 x i8], %struct.pathspec, ptr, ptr, ptr, ptr, ptr, ptr, ptr, ptr, i32, ptr, i32, i32, ptr, ptr, i32 }
%struct.diff_flags = type { i32, i32, i32, i32, i32, i32, i32, i32, i32, i32, i32, i32, i32, i32, i32, i32, i32, i32, i32, i32, i32, i32, i32, i32, i32, i32, i32, i32, i32, i32, i32, i32, i32, i32, i32 }
%struct.display_notes_opt = type { i32, %struct.string_list }
%struct.decoration = type { ptr, i32, i32, ptr }
%struct.oidset = type { %struct.kh_oid_set }
%struct.kh_oid_set = type { i32, i32, i32, i32, ptr, ptr, ptr }
%struct.repository = type { ptr, ptr, ptr, ptr, ptr, %struct.strmap, %struct.strmap, %struct.repo_path_cache, ptr, ptr, ptr, ptr, %struct.repo_settings, ptr, ptr, ptr, ptr, ptr, ptr, i32, i32, i32, ptr, ptr, i32, i32, i8 }
%struct.strmap = type { %struct.hashmap, ptr, i8 }
%struct.hashmap = type { ptr, ptr, ptr, i32, i32, i32, i32, i8 }
%struct.repo_path_cache = type { ptr, ptr, ptr, ptr, ptr, ptr, ptr }
%struct.repo_settings = type { i32, i32, i32, i32, i32, i32, i32, i32, i32, i32, i32, i32, ptr, i32, i32, i32, i32, i32, i32, i32, i64, i64, i64 }
%struct.object_id = type { [32 x i8], i32 }
%struct.object_array_entry = type { ptr, ptr, ptr, i32 }
%struct.object = type { i32, %struct.object_id }

@.str = private unnamed_addr constant [3 x i8] c"i/\00", align 1
@.str.1 = private unnamed_addr constant [3 x i8] c"w/\00", align 1
@trace_perf_key = external global %struct.trace_key, align 8
@.str.2 = private unnamed_addr constant [11 x i8] c"diff-lib.c\00", align 1
@.str.10 = private unnamed_addr constant [47 x i8] c"run_diff_index must be passed exactly one tree\00", align 1
@.str.11 = private unnamed_addr constant [3 x i8] c"c/\00", align 1
@.str.12 = private unnamed_addr constant [11 x i8] c"diff-index\00", align 1

; Function Attrs: inlinehint nounwind uwtable
define internal i32 @trace_pass_fl(ptr noundef %0) #3 {
  %2 = alloca ptr, align 8
  store ptr %0, ptr %2, align 8, !tbaa !141
  %3 = load ptr, ptr %2, align 8, !tbaa !141
  %4 = getelementptr inbounds nuw %struct.trace_key, ptr %3, i32 0, i32 1
  %5 = load i32, ptr %4, align 8, !tbaa !143
  %6 = icmp ne i32 %5, 0
  br i1 %6, label %15, label %7

7:                                                ; preds = %1
  %8 = load ptr, ptr %2, align 8, !tbaa !141
  %9 = getelementptr inbounds nuw %struct.trace_key, ptr %8, i32 0, i32 2
  %10 = load i8, ptr %9, align 4
  %11 = and i8 %10, 1
  %12 = zext i8 %11 to i32
  %13 = icmp ne i32 %12, 0
  %14 = xor i1 %13, true
  br label %15

15:                                               ; preds = %7, %1
  %16 = phi i1 [ true, %1 ], [ %14, %7 ]
  %17 = zext i1 %16 to i32
  ret i32 %17
}

; Function Attrs: inlinehint nounwind uwtable
define internal void @oidcpy(ptr noundef %0, ptr noundef %1) #3 {
  %3 = alloca ptr, align 8
  %4 = alloca ptr, align 8
  store ptr %0, ptr %3, align 8, !tbaa !120
  store ptr %1, ptr %4, align 8, !tbaa !120
  %5 = load ptr, ptr %3, align 8, !tbaa !120
  %6 = getelementptr inbounds nuw %struct.object_id, ptr %5, i32 0, i32 0
  %7 = getelementptr inbounds [32 x i8], ptr %6, i64 0, i64 0
  %8 = load ptr, ptr %4, align 8, !tbaa !120
  %9 = getelementptr inbounds nuw %struct.object_id, ptr %8, i32 0, i32 0
  %10 = getelementptr inbounds [32 x i8], ptr %9, i64 0, i64 0
  call void @llvm.memcpy.p0.p0.i64(ptr align 4 %7, ptr align 4 %10, i64 32, i1 false)
  %11 = load ptr, ptr %4, align 8, !tbaa !120
  %12 = getelementptr inbounds nuw %struct.object_id, ptr %11, i32 0, i32 1
  %13 = load i32, ptr %12, align 4, !tbaa !128
  %14 = load ptr, ptr %3, align 8, !tbaa !120
  %15 = getelementptr inbounds nuw %struct.object_id, ptr %14, i32 0, i32 1
  store i32 %13, ptr %15, align 4, !tbaa !128
  ret void
}

; Function Attrs: nounwind uwtable
define dso_local void @run_diff_index(ptr noundef %0, i32 noundef %1) #0 {
  %3 = alloca ptr, align 8
  %4 = alloca i32, align 4
  %5 = alloca ptr, align 8
  %6 = alloca i32, align 4
  %7 = alloca i32, align 4
  %8 = alloca %struct.object_id, align 4
  %9 = alloca ptr, align 8
  %10 = alloca [65 x i8], align 16
  %11 = alloca ptr, align 8
  store ptr %0, ptr %3, align 8, !tbaa !4
  store i32 %1, ptr %4, align 4, !tbaa !9
  call void @llvm.lifetime.start.p0(i64 8, ptr %5) #11
  call void @llvm.lifetime.start.p0(i64 4, ptr %6) #11
  %12 = load i32, ptr %4, align 4, !tbaa !9
  %13 = and i32 %12, 1
  %14 = icmp ne i32 %13, 0
  %15 = xor i1 %14, true
  %16 = xor i1 %15, true
  %17 = zext i1 %16 to i32
  store i32 %17, ptr %6, align 4, !tbaa !9
  call void @llvm.lifetime.start.p0(i64 4, ptr %7) #11
  %18 = load i32, ptr %4, align 4, !tbaa !9
  %19 = and i32 %18, 2
  %20 = icmp ne i32 %19, 0
  %21 = xor i1 %20, true
  %22 = xor i1 %21, true
  %23 = zext i1 %22 to i32
  store i32 %23, ptr %7, align 4, !tbaa !9
  call void @llvm.lifetime.start.p0(i64 36, ptr %8) #11
  call void @llvm.lifetime.start.p0(i64 8, ptr %9) #11
  call void @llvm.lifetime.start.p0(i64 65, ptr %10) #11
  call void @llvm.lifetime.start.p0(i64 8, ptr %11) #11
  %24 = load ptr, ptr %3, align 8, !tbaa !4
  %25 = getelementptr inbounds nuw %struct.rev_info, ptr %24, i32 0, i32 53
  %26 = getelementptr inbounds nuw %struct.diff_options, ptr %25, i32 0, i32 71
  %27 = load ptr, ptr %26, align 8, !tbaa !62
  %28 = getelementptr inbounds nuw %struct.repository, ptr %27, i32 0, i32 15
  %29 = load ptr, ptr %28, align 8, !tbaa !63
  store ptr %29, ptr %11, align 8, !tbaa !81
  %30 = load ptr, ptr %3, align 8, !tbaa !4
  %31 = getelementptr inbounds nuw %struct.rev_info, ptr %30, i32 0, i32 1
  %32 = getelementptr inbounds nuw %struct.object_array, ptr %31, i32 0, i32 0
  %33 = load i32, ptr %32, align 8, !tbaa !146
  %34 = icmp ne i32 %33, 1
  br i1 %34, label %35, label %36

35:                                               ; preds = %2
  call void (ptr, i32, ptr, ...) @BUG_fl(ptr noundef @.str.2, i32 noundef 622, ptr noundef @.str.10) #14
  unreachable

36:                                               ; preds = %2
  %37 = call i64 @trace_performance_enter()
  %38 = load ptr, ptr %3, align 8, !tbaa !4
  %39 = getelementptr inbounds nuw %struct.rev_info, ptr %38, i32 0, i32 1
  %40 = getelementptr inbounds nuw %struct.object_array, ptr %39, i32 0, i32 2
  %41 = load ptr, ptr %40, align 8, !tbaa !147
  store ptr %41, ptr %5, align 8, !tbaa !160
  %42 = load ptr, ptr %11, align 8, !tbaa !81
  call void @refresh_fsmonitor(ptr noundef %42)
  %43 = load i32, ptr %7, align 4, !tbaa !9
  %44 = icmp ne i32 %43, 0
  br i1 %44, label %45, label %49

45:                                               ; preds = %36
  %46 = load ptr, ptr %3, align 8, !tbaa !4
  call void @diff_get_merge_base(ptr noundef %46, ptr noundef %8)
  %47 = getelementptr inbounds [65 x i8], ptr %10, i64 0, i64 0
  %48 = call ptr @oid_to_hex_r(ptr noundef %47, ptr noundef %8)
  store ptr %48, ptr %9, align 8, !tbaa !124
  br label %57

49:                                               ; preds = %36
  %50 = load ptr, ptr %5, align 8, !tbaa !160
  %51 = getelementptr inbounds nuw %struct.object_array_entry, ptr %50, i32 0, i32 0
  %52 = load ptr, ptr %51, align 8, !tbaa !148
  %53 = getelementptr inbounds nuw %struct.object, ptr %52, i32 0, i32 1
  call void @oidcpy(ptr noundef %8, ptr noundef %53)
  %54 = load ptr, ptr %5, align 8, !tbaa !160
  %55 = getelementptr inbounds nuw %struct.object_array_entry, ptr %54, i32 0, i32 1
  %56 = load ptr, ptr %55, align 8, !tbaa !161
  store ptr %56, ptr %9, align 8, !tbaa !124
  br label %57

57:                                               ; preds = %49, %45
  %58 = load ptr, ptr %3, align 8, !tbaa !4
  %59 = load ptr, ptr %9, align 8, !tbaa !124
  %60 = load i32, ptr %6, align 4, !tbaa !9
  %61 = call i32 @diff_cache(ptr noundef %58, ptr noundef %8, ptr noundef %59, i32 noundef %60)
  %62 = icmp ne i32 %61, 0
  br i1 %62, label %63, label %65

63:                                               ; preds = %57
  %64 = call i32 @common_exit(ptr noundef @.str.2, i32 noundef 638, i32 noundef 128)
  call void @exit(i32 noundef %64) #15
  unreachable

65:                                               ; preds = %57
  %66 = load ptr, ptr %3, align 8, !tbaa !4
  %67 = getelementptr inbounds nuw %struct.rev_info, ptr %66, i32 0, i32 53
  %68 = load i32, ptr %6, align 4, !tbaa !9
  %69 = icmp ne i32 %68, 0
  %70 = select i1 %69, ptr @.str, ptr @.str.1
  call void @diff_set_mnemonic_prefix(ptr noundef %67, ptr noundef @.str.11, ptr noundef %70)
  call void @diffcore_fix_diff_index()
  %71 = load ptr, ptr %3, align 8, !tbaa !4
  %72 = getelementptr inbounds nuw %struct.rev_info, ptr %71, i32 0, i32 53
  call void @diffcore_std(ptr noundef %72)
  %73 = load ptr, ptr %3, align 8, !tbaa !4
  %74 = getelementptr inbounds nuw %struct.rev_info, ptr %73, i32 0, i32 53
  call void @diff_flush(ptr noundef %74)
  br label %75

75:                                               ; preds = %65
  %76 = call i32 @trace_pass_fl(ptr noundef @trace_perf_key)
  %77 = icmp ne i32 %76, 0
  br i1 %77, label %78, label %80

78:                                               ; preds = %75
  %79 = call i64 @getnanotime()
  call void (ptr, i32, i64, ptr, ...) @trace_performance_leave_fl(ptr noundef @.str.2, i32 noundef 644, i64 noundef %79, ptr noundef @.str.12)
  br label %80

80:                                               ; preds = %78, %75
  br label %81

81:                                               ; preds = %80
  br label %82

82:                                               ; preds = %81
  call void @llvm.lifetime.end.p0(i64 8, ptr %11) #11
  call void @llvm.lifetime.end.p0(i64 65, ptr %10) #11
  call void @llvm.lifetime.end.p0(i64 8, ptr %9) #11
  call void @llvm.lifetime.end.p0(i64 36, ptr %8) #11
  call void @llvm.lifetime.end.p0(i64 4, ptr %7) #11
  call void @llvm.lifetime.end.p0(i64 4, ptr %6) #11
  call void @llvm.lifetime.end.p0(i64 8, ptr %5) #11
  ret void
}