; Function Attrs: nounwind uwtable
define dso_local void @run_diff_index(ptr noundef %0, i32 noundef %1) local_unnamed_addr #0 {
  %3 = alloca %struct.object_id, align 4
  %4 = alloca [65 x i8], align 16
  %5 = and i32 %1, 1
  %.not = icmp eq i32 %5, 0
  call void @llvm.lifetime.start.p0(i64 36, ptr nonnull %3) #15
  call void @llvm.lifetime.start.p0(i64 65, ptr nonnull %4) #15
  %6 = getelementptr inbounds nuw i8, ptr %0, i64 1472
  %7 = getelementptr inbounds nuw i8, ptr %0, i64 8
  %8 = load i32, ptr %7, align 8, !tbaa !126
  %.not17 = icmp eq i32 %8, 1
  br i1 %.not17, label %10, label %9

9:                                                ; preds = %2
  tail call void (ptr, i32, ptr, ...) @BUG_fl(ptr noundef nonnull @.str.2, i32 noundef 622, ptr noundef nonnull @.str.10) #19
  unreachable

10:                                               ; preds = %2
  %11 = getelementptr inbounds nuw i8, ptr %0, i64 2040
  %12 = load ptr, ptr %11, align 8, !tbaa !58
  %13 = getelementptr inbounds nuw i8, ptr %12, i64 384
  %14 = load ptr, ptr %13, align 8, !tbaa !59
  %15 = and i32 %1, 2
  %.not16 = icmp eq i32 %15, 0
  %16 = tail call i64 @trace_performance_enter() #15
  %17 = getelementptr inbounds nuw i8, ptr %0, i64 16
  %18 = load ptr, ptr %17, align 8, !tbaa !127
  tail call void @refresh_fsmonitor(ptr noundef %14) #15
  br i1 %.not16, label %21, label %19

19:                                               ; preds = %10
  call void @diff_get_merge_base(ptr noundef nonnull %0, ptr noundef nonnull %3)
  %20 = call ptr @oid_to_hex_r(ptr noundef nonnull %4, ptr noundef nonnull %3) #15
  br label %29

21:                                               ; preds = %10
  %22 = load ptr, ptr %18, align 8, !tbaa !129
  %23 = getelementptr inbounds nuw i8, ptr %22, i64 4
  call void @llvm.memcpy.p0.p0.i64(ptr noundef nonnull align 4 dereferenceable(32) %3, ptr noundef nonnull readonly align 4 dereferenceable(32) %23, i64 32, i1 false)
  %24 = getelementptr inbounds nuw i8, ptr %22, i64 36
  %25 = load i32, ptr %24, align 4, !tbaa !98
  %26 = getelementptr inbounds nuw i8, ptr %3, i64 32
  store i32 %25, ptr %26, align 4, !tbaa !98
  %27 = getelementptr inbounds nuw i8, ptr %18, i64 8
  %28 = load ptr, ptr %27, align 8, !tbaa !139
  br label %29

29:                                               ; preds = %21, %19
  %.0 = phi ptr [ %20, %19 ], [ %28, %21 ]
  %30 = call fastcc i32 @diff_cache(ptr noundef nonnull %0, ptr noundef nonnull %3, ptr noundef %.0, i32 noundef %5)
  %.not18 = icmp eq i32 %30, 0
  br i1 %.not18, label %33, label %31

31:                                               ; preds = %29
  %32 = call i32 @common_exit(ptr noundef nonnull @.str.2, i32 noundef 638, i32 noundef 128) #15
  call void @exit(i32 noundef %32) #19
  unreachable

33:                                               ; preds = %29
  %34 = select i1 %.not, ptr @.str.1, ptr @.str
  call void @diff_set_mnemonic_prefix(ptr noundef nonnull %6, ptr noundef nonnull @.str.11, ptr noundef nonnull %34) #15
  call void @diffcore_fix_diff_index() #15
  call void @diffcore_std(ptr noundef nonnull %6) #15
  call void @diff_flush(ptr noundef nonnull %6) #15
  %trace_perf_key.val = load i32, ptr getelementptr inbounds nuw (i8, ptr @trace_perf_key, i64 8), align 8, !tbaa !119
  %trace_perf_key.val20 = load i8, ptr getelementptr inbounds nuw (i8, ptr @trace_perf_key, i64 12), align 4
  %.not.i = icmp eq i32 %trace_perf_key.val, 0
  %35 = and i8 %trace_perf_key.val20, 1
  %.not1921 = icmp ne i8 %35, 0
  %.not19 = select i1 %.not.i, i1 %.not1921, i1 false
  br i1 %.not19, label %38, label %36

36:                                               ; preds = %33
  %37 = call i64 @getnanotime() #15
  call void (ptr, i32, i64, ptr, ...) @trace_performance_leave_fl(ptr noundef nonnull @.str.2, i32 noundef 644, i64 noundef %37, ptr noundef nonnull @.str.12) #15
  br label %38

38:                                               ; preds = %36, %33
  call void @llvm.lifetime.end.p0(i64 65, ptr nonnull %4) #15
  call void @llvm.lifetime.end.p0(i64 36, ptr nonnull %3) #15
  ret void
}